target datalayout = "e-m:e-p270:32:32-p271:32:32-p272:64:64-i64:64-i128:128-f80:128-n8:16:32:64-S128"
target triple = "x86_64-pc-linux-gnu"

%"struct.xgboost::detail::UnsignedFloatBase2" = type { i32, i32 }
%"struct.xgboost::detail::UnsignedFloatBase10" = type { i32, i32 }
%"struct.xgboost::detail::MantissaInteval" = type { i32, i32, i32, i32 }

@.str = private unnamed_addr constant [4 x i8] c"NaN\00", align 1
@.str.1 = private unnamed_addr constant [9 x i8] c"Infinity\00", align 1
@.str.2 = private unnamed_addr constant [4 x i8] c"0E0\00", align 1

; Function Attrs: mustprogress nounwind uwtable
define linkonce_odr noundef zeroext i1 @_ZSt7signbitf(float noundef %0) #7 comdat {
  %2 = alloca float, align 4
  store float %0, ptr %2, align 4, !tbaa !3
  %3 = load float, ptr %2, align 4, !tbaa !3
  %4 = bitcast float %3 to i32
  %5 = icmp slt i32 %4, 0
  ret i1 %5
}

; Function Attrs: mustprogress nounwind uwtable
define linkonce_odr noundef i32 @_ZN7xgboost6detail7BitCastIjRfEET_OT0_(ptr noundef nonnull align 4 dereferenceable(4) %0) #7 comdat {
  %2 = alloca ptr, align 8
  %3 = alloca i32, align 4
  store ptr %0, ptr %2, align 8, !tbaa !43
  call void @llvm.lifetime.start.p0(i64 4, ptr %3) #3
  %4 = load ptr, ptr %2, align 8, !tbaa !43
  call void @llvm.memcpy.p0.p0.i64(ptr align 4 %3, ptr align 4 %4, i64 4, i1 false)
  %5 = load i32, ptr %3, align 4, !tbaa !15
  call void @llvm.lifetime.end.p0(i64 4, ptr %3) #3
  ret i32 %5
}

; Function Attrs: mustprogress nounwind uwtable
define linkonce_odr i64 @_ZN7xgboost6detail17PowerBaseComputer14Binary2DecimalENS0_18UnsignedFloatBase2E(i64 %0) #7 comdat align 2 {
  %2 = alloca %"struct.xgboost::detail::UnsignedFloatBase10", align 4
  %3 = alloca %"struct.xgboost::detail::UnsignedFloatBase2", align 4
  %4 = alloca %"struct.xgboost::detail::MantissaInteval", align 4
  %5 = alloca i32, align 4
  %6 = alloca i8, align 1
  %7 = alloca i8, align 1
  %8 = alloca i32, align 4
  %9 = alloca %"struct.xgboost::detail::MantissaInteval", align 4
  %10 = alloca i8, align 1
  %11 = alloca i8, align 1
  %12 = alloca i8, align 1
  %13 = alloca %"struct.xgboost::detail::MantissaInteval", align 4
  %14 = alloca %"struct.xgboost::detail::MantissaInteval", align 4
  store i64 %0, ptr %3, align 4
  call void @llvm.lifetime.start.p0(i64 16, ptr %4) #3
  call void @llvm.lifetime.start.p0(i64 4, ptr %5) #3
  %15 = getelementptr inbounds nuw %"struct.xgboost::detail::UnsignedFloatBase2", ptr %3, i32 0, i32 1
  %16 = load i32, ptr %15, align 4, !tbaa !23
  %17 = icmp eq i32 %16, 0
  br i1 %17, label %18, label %22

18:                                               ; preds = %1
  %19 = getelementptr inbounds nuw %"struct.xgboost::detail::MantissaInteval", ptr %4, i32 0, i32 0
  store i32 -151, ptr %19, align 4, !tbaa !25
  %20 = getelementptr inbounds nuw %"struct.xgboost::detail::UnsignedFloatBase2", ptr %3, i32 0, i32 0
  %21 = load i32, ptr %20, align 4, !tbaa !21
  store i32 %21, ptr %5, align 4, !tbaa !15
  br label %32

22:                                               ; preds = %1
  %23 = getelementptr inbounds nuw %"struct.xgboost::detail::UnsignedFloatBase2", ptr %3, i32 0, i32 1
  %24 = load i32, ptr %23, align 4, !tbaa !23
  %25 = sub i32 %24, 127
  %26 = sub i32 %25, 23
  %27 = sub i32 %26, 2
  %28 = getelementptr inbounds nuw %"struct.xgboost::detail::MantissaInteval", ptr %4, i32 0, i32 0
  store i32 %27, ptr %28, align 4, !tbaa !25
  %29 = getelementptr inbounds nuw %"struct.xgboost::detail::UnsignedFloatBase2", ptr %3, i32 0, i32 0
  %30 = load i32, ptr %29, align 4, !tbaa !21
  %31 = or i32 8388608, %30
  store i32 %31, ptr %5, align 4, !tbaa !15
  br label %32

32:                                               ; preds = %22, %18
  call void @llvm.lifetime.start.p0(i64 1, ptr %6) #3
  %33 = load i32, ptr %5, align 4, !tbaa !15
  %34 = and i32 %33, 1
  %35 = icmp eq i32 %34, 0
  %36 = zext i1 %35 to i8
  store i8 %36, ptr %6, align 1, !tbaa !10
  call void @llvm.lifetime.start.p0(i64 1, ptr %7) #3
  %37 = load i8, ptr %6, align 1, !tbaa !10, !range !12, !noundef !13
  %38 = trunc i8 %37 to i1
  %39 = zext i1 %38 to i8
  store i8 %39, ptr %7, align 1, !tbaa !10
  %40 = load i32, ptr %5, align 4, !tbaa !15
  %41 = mul i32 4, %40
  %42 = getelementptr inbounds nuw %"struct.xgboost::detail::MantissaInteval", ptr %4, i32 0, i32 2
  store i32 %41, ptr %42, align 4, !tbaa !27
  %43 = load i32, ptr %5, align 4, !tbaa !15
  %44 = mul i32 4, %43
  %45 = add i32 %44, 2
  %46 = getelementptr inbounds nuw %"struct.xgboost::detail::MantissaInteval", ptr %4, i32 0, i32 3
  store i32 %45, ptr %46, align 4, !tbaa !28
  call void @llvm.lifetime.start.p0(i64 4, ptr %8) #3
  %47 = getelementptr inbounds nuw %"struct.xgboost::detail::UnsignedFloatBase2", ptr %3, i32 0, i32 0
  %48 = load i32, ptr %47, align 4, !tbaa !21
  %49 = icmp ne i32 %48, 0
  br i1 %49, label %54, label %50

50:                                               ; preds = %32
  %51 = getelementptr inbounds nuw %"struct.xgboost::detail::UnsignedFloatBase2", ptr %3, i32 0, i32 1
  %52 = load i32, ptr %51, align 4, !tbaa !23
  %53 = icmp ule i32 %52, 1
  br label %54

54:                                               ; preds = %50, %32
  %55 = phi i1 [ true, %32 ], [ %53, %50 ]
  %56 = zext i1 %55 to i32
  store i32 %56, ptr %8, align 4, !tbaa !15
  %57 = load i32, ptr %5, align 4, !tbaa !15
  %58 = mul i32 4, %57
  %59 = sub i32 %58, 1
  %60 = load i32, ptr %8, align 4, !tbaa !15
  %61 = sub i32 %59, %60
  %62 = getelementptr inbounds nuw %"struct.xgboost::detail::MantissaInteval", ptr %4, i32 0, i32 1
  store i32 %61, ptr %62, align 4, !tbaa !29
  call void @llvm.lifetime.start.p0(i64 16, ptr %9) #3
  call void @llvm.lifetime.start.p0(i64 1, ptr %10) #3
  store i8 0, ptr %10, align 1, !tbaa !10
  call void @llvm.lifetime.start.p0(i64 1, ptr %11) #3
  store i8 0, ptr %11, align 1, !tbaa !10
  call void @llvm.lifetime.start.p0(i64 1, ptr %12) #3
  %63 = load i8, ptr %7, align 1, !tbaa !10, !range !12, !noundef !13
  %64 = trunc i8 %63 to i1
  %65 = load i32, ptr %8, align 4, !tbaa !15
  call void @llvm.memcpy.p0.p0.i64(ptr align 4 %13, ptr align 4 %4, i64 16, i1 false), !tbaa.struct !30
  %66 = getelementptr inbounds nuw { i64, i64 }, ptr %13, i32 0, i32 0
  %67 = load i64, ptr %66, align 4
  %68 = getelementptr inbounds nuw { i64, i64 }, ptr %13, i32 0, i32 1
  %69 = load i64, ptr %68, align 4
  %70 = call noundef zeroext i8 @_ZN7xgboost6detail17PowerBaseComputer13ToDecimalBaseEbjNS0_15MantissaIntevalEPS2_PbS4_(i1 noundef zeroext %64, i32 noundef %65, i64 %67, i64 %69, ptr noundef %9, ptr noundef %10, ptr noundef %11) #3
  store i8 %70, ptr %12, align 1, !tbaa !24
  %71 = load i8, ptr %10, align 1, !tbaa !10, !range !12, !noundef !13
  %72 = trunc i8 %71 to i1
  %73 = load i8, ptr %11, align 1, !tbaa !10, !range !12, !noundef !13
  %74 = trunc i8 %73 to i1
  %75 = load i8, ptr %12, align 1, !tbaa !24
  %76 = load i8, ptr %7, align 1, !tbaa !10, !range !12, !noundef !13
  %77 = trunc i8 %76 to i1
  call void @llvm.memcpy.p0.p0.i64(ptr align 4 %14, ptr align 4 %9, i64 16, i1 false), !tbaa.struct !30
  %78 = getelementptr inbounds nuw { i64, i64 }, ptr %14, i32 0, i32 0
  %79 = load i64, ptr %78, align 4
  %80 = getelementptr inbounds nuw { i64, i64 }, ptr %14, i32 0, i32 1
  %81 = load i64, ptr %80, align 4
  %82 = call i64 @_ZN7xgboost6detail17PowerBaseComputer22ShortestRepresentationEbbhbNS0_15MantissaIntevalE(i1 noundef zeroext %72, i1 noundef zeroext %74, i8 noundef zeroext %75, i1 noundef zeroext %77, i64 %79, i64 %81) #3
  store i64 %82, ptr %2, align 4
  call void @llvm.lifetime.end.p0(i64 1, ptr %12) #3
  call void @llvm.lifetime.end.p0(i64 1, ptr %11) #3
  call void @llvm.lifetime.end.p0(i64 1, ptr %10) #3
  call void @llvm.lifetime.end.p0(i64 16, ptr %9) #3
  call void @llvm.lifetime.end.p0(i64 4, ptr %8) #3
  call void @llvm.lifetime.end.p0(i64 1, ptr %7) #3
  call void @llvm.lifetime.end.p0(i64 1, ptr %6) #3
  call void @llvm.lifetime.end.p0(i64 4, ptr %5) #3
  call void @llvm.lifetime.end.p0(i64 16, ptr %4) #3
  %83 = load i64, ptr %2, align 4
  ret i64 %83
}

; Function Attrs: mustprogress nounwind uwtable
define linkonce_odr noundef i32 @_ZN7xgboost6detail10RyuPrinter17PrintSpecialFloatEbNS0_18UnsignedFloatBase2EPc(i1 noundef zeroext %0, i64 %1, ptr noundef %2) #7 comdat align 2 {
  %4 = alloca i32, align 4
  %5 = alloca %"struct.xgboost::detail::UnsignedFloatBase2", align 4
  %6 = alloca i8, align 1
  %7 = alloca ptr, align 8
  store i64 %1, ptr %5, align 4
  %8 = zext i1 %0 to i8
  store i8 %8, ptr %6, align 1, !tbaa !10
  store ptr %2, ptr %7, align 8, !tbaa !7
  %9 = getelementptr inbounds nuw %"struct.xgboost::detail::UnsignedFloatBase2", ptr %5, i32 0, i32 0
  %10 = load i32, ptr %9, align 4, !tbaa !21
  %11 = icmp ne i32 %10, 0
  br i1 %11, label %12, label %14

12:                                               ; preds = %3
  %13 = load ptr, ptr %7, align 8, !tbaa !7
  call void @llvm.memcpy.p0.p0.i64(ptr align 1 %13, ptr align 1 @.str, i64 3, i1 false)
  store i32 3, ptr %4, align 4
  br label %46

14:                                               ; preds = %3
  %15 = load i8, ptr %6, align 1, !tbaa !10, !range !12, !noundef !13
  %16 = trunc i8 %15 to i1
  br i1 %16, label %17, label %20

17:                                               ; preds = %14
  %18 = load ptr, ptr %7, align 8, !tbaa !7
  %19 = getelementptr inbounds i8, ptr %18, i64 0
  store i8 45, ptr %19, align 1, !tbaa !24
  br label %20

20:                                               ; preds = %17, %14
  %21 = getelementptr inbounds nuw %"struct.xgboost::detail::UnsignedFloatBase2", ptr %5, i32 0, i32 1
  %22 = load i32, ptr %21, align 4, !tbaa !23
  %23 = icmp ne i32 %22, 0
  br i1 %23, label %24, label %35

24:                                               ; preds = %20
  %25 = load ptr, ptr %7, align 8, !tbaa !7
  %26 = load i8, ptr %6, align 1, !tbaa !10, !range !12, !noundef !13
  %27 = trunc i8 %26 to i1
  %28 = zext i1 %27 to i32
  %29 = sext i32 %28 to i64
  %30 = getelementptr inbounds i8, ptr %25, i64 %29
  call void @llvm.memcpy.p0.p0.i64(ptr align 1 %30, ptr align 1 @.str.1, i64 8, i1 false)
  %31 = load i8, ptr %6, align 1, !tbaa !10, !range !12, !noundef !13
  %32 = trunc i8 %31 to i1
  %33 = zext i1 %32 to i32
  %34 = add nsw i32 %33, 8
  store i32 %34, ptr %4, align 4
  br label %46

35:                                               ; preds = %20
  %36 = load ptr, ptr %7, align 8, !tbaa !7
  %37 = load i8, ptr %6, align 1, !tbaa !10, !range !12, !noundef !13
  %38 = trunc i8 %37 to i1
  %39 = zext i1 %38 to i32
  %40 = sext i32 %39 to i64
  %41 = getelementptr inbounds i8, ptr %36, i64 %40
  call void @llvm.memcpy.p0.p0.i64(ptr align 1 %41, ptr align 1 @.str.2, i64 3, i1 false)
  %42 = load i8, ptr %6, align 1, !tbaa !10, !range !12, !noundef !13
  %43 = trunc i8 %42 to i1
  %44 = zext i1 %43 to i32
  %45 = add nsw i32 %44, 3
  store i32 %45, ptr %4, align 4
  br label %46

46:                                               ; preds = %35, %24, %12
  %47 = load i32, ptr %4, align 4
  ret i32 %47
}

; Function Attrs: mustprogress nounwind uwtable
define linkonce_odr noundef zeroext i1 @_ZNK7xgboost6detail18UnsignedFloatBase24ZeroEv(ptr noundef nonnull align 4 dereferenceable(8) %0) #7 comdat align 2 {
  %2 = alloca ptr, align 8
  store ptr %0, ptr %2, align 8, !tbaa !17
  %3 = load ptr, ptr %2, align 8
  %4 = getelementptr inbounds nuw %"struct.xgboost::detail::UnsignedFloatBase2", ptr %3, i32 0, i32 0
  %5 = load i32, ptr %4, align 4, !tbaa !21
  %6 = icmp eq i32 %5, 0
  br i1 %6, label %7, label %11

7:                                                ; preds = %1
  %8 = getelementptr inbounds nuw %"struct.xgboost::detail::UnsignedFloatBase2", ptr %3, i32 0, i32 1
  %9 = load i32, ptr %8, align 4, !tbaa !23
  %10 = icmp eq i32 %9, 0
  br label %11

11:                                               ; preds = %7, %1
  %12 = phi i1 [ false, %1 ], [ %10, %7 ]
  ret i1 %12
}

; Function Attrs: mustprogress nounwind uwtable
define linkonce_odr noundef zeroext i1 @_ZNK7xgboost6detail18UnsignedFloatBase28InfiniteEv(ptr noundef nonnull align 4 dereferenceable(8) %0) #7 comdat align 2 {
  %2 = alloca ptr, align 8
  store ptr %0, ptr %2, align 8, !tbaa !17
  %3 = load ptr, ptr %2, align 8
  %4 = getelementptr inbounds nuw %"struct.xgboost::detail::UnsignedFloatBase2", ptr %3, i32 0, i32 1
  %5 = load i32, ptr %4, align 4, !tbaa !23
  %6 = icmp eq i32 %5, 255
  ret i1 %6
}

; Function Attrs: inlinehint mustprogress uwtable
define linkonce_odr void @_ZN7xgboost6detail7IEEE7546DecodeEfPNS0_18UnsignedFloatBase2EPb(float noundef %0, ptr noundef %1, ptr noundef %2) #6 comdat align 2 {
  %4 = alloca float, align 4
  %5 = alloca ptr, align 8
  %6 = alloca ptr, align 8
  %7 = alloca i32, align 4
  store float %0, ptr %4, align 4, !tbaa !3
  store ptr %1, ptr %5, align 8, !tbaa !17
  store ptr %2, ptr %6, align 8, !tbaa !19
  call void @llvm.lifetime.start.p0(i64 4, ptr %7) #3
  %8 = call noundef i32 @_ZN7xgboost6detail7BitCastIjRfEET_OT0_(ptr noundef nonnull align 4 dereferenceable(4) %4)
  store i32 %8, ptr %7, align 4, !tbaa !15
  %9 = load float, ptr %4, align 4, !tbaa !3
  %10 = call noundef zeroext i1 @_ZSt7signbitf(float noundef %9)
  %11 = load ptr, ptr %6, align 8, !tbaa !19
  %12 = zext i1 %10 to i8
  store i8 %12, ptr %11, align 1, !tbaa !10
  %13 = load i32, ptr %7, align 4, !tbaa !15
  %14 = and i32 %13, 8388607
  %15 = load ptr, ptr %5, align 8, !tbaa !17
  %16 = getelementptr inbounds nuw %"struct.xgboost::detail::UnsignedFloatBase2", ptr %15, i32 0, i32 0
  store i32 %14, ptr %16, align 4, !tbaa !21
  %17 = load i32, ptr %7, align 4, !tbaa !15
  %18 = lshr i32 %17, 23
  %19 = and i32 %18, 255
  %20 = load ptr, ptr %5, align 8, !tbaa !17
  %21 = getelementptr inbounds nuw %"struct.xgboost::detail::UnsignedFloatBase2", ptr %20, i32 0, i32 1
  store i32 %19, ptr %21, align 4, !tbaa !23
  call void @llvm.lifetime.end.p0(i64 4, ptr %7) #3
  ret void
}

; Function Attrs: mustprogress uwtable
define noundef i32 @_ZN7xgboost6detail16ToCharsFloatImplEfPc(float noundef %0, ptr noundef %1) #4 {
  %3 = alloca i32, align 4
  %4 = alloca float, align 4
  %5 = alloca ptr, align 8
  %6 = alloca %"struct.xgboost::detail::UnsignedFloatBase2", align 4
  %7 = alloca i8, align 1
  %8 = alloca %"struct.xgboost::detail::UnsignedFloatBase2", align 4
  %9 = alloca i32, align 4
  %10 = alloca %"struct.xgboost::detail::UnsignedFloatBase10", align 4
  %11 = alloca %"struct.xgboost::detail::UnsignedFloatBase2", align 4
  %12 = alloca i32, align 4
  %13 = alloca %"struct.xgboost::detail::UnsignedFloatBase10", align 4
  store float %0, ptr %4, align 4, !tbaa !3
  store ptr %1, ptr %5, align 8, !tbaa !7
  call void @llvm.lifetime.start.p0(i64 8, ptr %6) #3
  call void @llvm.lifetime.start.p0(i64 1, ptr %7) #3
  %14 = load float, ptr %4, align 4, !tbaa !3
  call void @_ZN7xgboost6detail7IEEE7546DecodeEfPNS0_18UnsignedFloatBase2EPb(float noundef %14, ptr noundef %6, ptr noundef %7)
  %15 = call noundef zeroext i1 @_ZNK7xgboost6detail18UnsignedFloatBase28InfiniteEv(ptr noundef nonnull align 4 dereferenceable(8) %6)
  br i1 %15, label %18, label %16

16:                                               ; preds = %2
  %17 = call noundef zeroext i1 @_ZNK7xgboost6detail18UnsignedFloatBase24ZeroEv(ptr noundef nonnull align 4 dereferenceable(8) %6)
  br i1 %17, label %18, label %24

18:                                               ; preds = %16, %2
  %19 = load i8, ptr %7, align 1, !tbaa !10, !range !12, !noundef !13
  %20 = trunc i8 %19 to i1
  call void @llvm.memcpy.p0.p0.i64(ptr align 4 %8, ptr align 4 %6, i64 8, i1 false), !tbaa.struct !14
  %21 = load ptr, ptr %5, align 8, !tbaa !7
  %22 = load i64, ptr %8, align 4
  %23 = call noundef i32 @_ZN7xgboost6detail10RyuPrinter17PrintSpecialFloatEbNS0_18UnsignedFloatBase2EPc(i1 noundef zeroext %20, i64 %22, ptr noundef %21) #3
  store i32 %23, ptr %3, align 4
  store i32 1, ptr %9, align 4
  br label %33

24:                                               ; preds = %16
  call void @llvm.lifetime.start.p0(i64 8, ptr %10) #3
  call void @llvm.memcpy.p0.p0.i64(ptr align 4 %11, ptr align 4 %6, i64 8, i1 false), !tbaa.struct !14
  %25 = load i64, ptr %11, align 4
  %26 = call i64 @_ZN7xgboost6detail17PowerBaseComputer14Binary2DecimalENS0_18UnsignedFloatBase2E(i64 %25) #3
  store i64 %26, ptr %10, align 4
  call void @llvm.lifetime.start.p0(i64 4, ptr %12) #3
  call void @llvm.memcpy.p0.p0.i64(ptr align 4 %13, ptr align 4 %10, i64 8, i1 false), !tbaa.struct !14
  %27 = load i8, ptr %7, align 1, !tbaa !10, !range !12, !noundef !13
  %28 = trunc i8 %27 to i1
  %29 = load ptr, ptr %5, align 8, !tbaa !7
  %30 = load i64, ptr %13, align 4
  %31 = call noundef i32 @_ZN7xgboost6detail10RyuPrinter16PrintBase10FloatENS0_19UnsignedFloatBase10EbPc(i64 %30, i1 noundef zeroext %28, ptr noundef %29) #3
  store i32 %31, ptr %12, align 4, !tbaa !15
  %32 = load i32, ptr %12, align 4, !tbaa !15
  store i32 %32, ptr %3, align 4
  store i32 1, ptr %9, align 4
  call void @llvm.lifetime.end.p0(i64 4, ptr %12) #3
  call void @llvm.lifetime.end.p0(i64 8, ptr %10) #3
  br label %33

33:                                               ; preds = %24, %18
  call void @llvm.lifetime.end.p0(i64 1, ptr %7) #3
  call void @llvm.lifetime.end.p0(i64 8, ptr %6) #3
  %34 = load i32, ptr %3, align 4
  ret i32 %34
}