; Function Attrs: mustprogress nounwind uwtable
define noundef i32 @_ZN7xgboost6detail16ToCharsFloatImplEfPc(float noundef %0, ptr noundef %1) local_unnamed_addr #3 {
  %3 = alloca %"struct.xgboost::detail::MantissaInteval", align 8
  %4 = alloca i8, align 1
  %5 = alloca i8, align 1
  %6 = bitcast float %0 to i32
  %.lobit.i = lshr i32 %6, 31
  %7 = and i32 %6, 8388607
  %8 = lshr i32 %6, 23
  %9 = and i32 %8, 255
  %10 = icmp eq i32 %9, 255
  %11 = or i32 %9, %7
  %12 = icmp eq i32 %11, 0
  %or.cond = or i1 %10, %12
  br i1 %or.cond, label %13, label %25

13:                                               ; preds = %2
  %14 = trunc nuw i32 %.lobit.i to i1
  %.not.i = icmp eq i32 %7, 0
  br i1 %.not.i, label %16, label %15

15:                                               ; preds = %13
  tail call void @llvm.memcpy.p0.p0.i64(ptr noundef nonnull align 1 dereferenceable(3) %1, ptr noundef nonnull align 1 dereferenceable(3) @.str, i64 3, i1 false)
  br label %_ZN7xgboost6detail10RyuPrinter17PrintSpecialFloatEbNS0_18UnsignedFloatBase2EPc.exit

16:                                               ; preds = %13
  br i1 %14, label %17, label %18

17:                                               ; preds = %16
  store i8 45, ptr %1, align 1, !tbaa !3
  br label %18

18:                                               ; preds = %17, %16
  %.not9.i = icmp eq i32 %9, 0
  %19 = zext nneg i32 %.lobit.i to i64
  %20 = getelementptr inbounds nuw i8, ptr %1, i64 %19
  br i1 %.not9.i, label %23, label %21

21:                                               ; preds = %18
  store i64 8751735898823355977, ptr %20, align 1
  %22 = select i1 %14, i32 9, i32 8
  br label %_ZN7xgboost6detail10RyuPrinter17PrintSpecialFloatEbNS0_18UnsignedFloatBase2EPc.exit

23:                                               ; preds = %18
  tail call void @llvm.memcpy.p0.p0.i64(ptr noundef nonnull align 1 dereferenceable(3) %20, ptr noundef nonnull align 1 dereferenceable(3) @.str.2, i64 3, i1 false)
  %24 = select i1 %14, i32 4, i32 3
  br label %_ZN7xgboost6detail10RyuPrinter17PrintSpecialFloatEbNS0_18UnsignedFloatBase2EPc.exit

25:                                               ; preds = %2
  %26 = icmp eq i32 %9, 0
  %27 = add nsw i32 %9, -152
  %28 = or disjoint i32 %7, 8388608
  %.0.i7 = select i1 %26, i32 %7, i32 %28
  %narrow = select i1 %26, i32 -151, i32 %27
  %.sroa.012.0.i = zext i32 %narrow to i64
  %29 = and i32 %.0.i7, 1
  %30 = icmp eq i32 %29, 0
  %31 = shl nuw nsw i32 %.0.i7, 2
  %.sroa.6.8.insert.ext.i = zext nneg i32 %31 to i64
  %32 = or disjoint i32 %31, 2
  %.sroa.6.12.insert.ext.i = zext nneg i32 %32 to i64
  %.sroa.6.12.insert.shift.i = shl nuw nsw i64 %.sroa.6.12.insert.ext.i, 32
  %.sroa.6.12.insert.insert.i = or disjoint i64 %.sroa.6.12.insert.shift.i, %.sroa.6.8.insert.ext.i
  %33 = icmp ne i32 %7, 0
  %34 = icmp samesign ult i32 %9, 2
  %35 = or i1 %33, %34
  %36 = zext i1 %35 to i32
  %37 = xor i32 %36, -1
  %38 = add nsw i32 %31, %37
  %.sroa.012.4.insert.ext.i = zext i32 %38 to i64
  %.sroa.012.4.insert.shift.i = shl nuw i64 %.sroa.012.4.insert.ext.i, 32
  %.sroa.012.4.insert.insert.i = or disjoint i64 %.sroa.012.4.insert.shift.i, %.sroa.012.0.i
  call void @llvm.lifetime.start.p0(i64 16, ptr nonnull %3) #11
  call void @llvm.lifetime.start.p0(i64 1, ptr nonnull %4) #11
  store i8 0, ptr %4, align 1, !tbaa !6
  call void @llvm.lifetime.start.p0(i64 1, ptr nonnull %5) #11
  store i8 0, ptr %5, align 1, !tbaa !6
  %39 = call noundef zeroext i8 @_ZN7xgboost6detail17PowerBaseComputer13ToDecimalBaseEbjNS0_15MantissaIntevalEPS2_PbS4_(i1 noundef zeroext %30, i32 noundef %36, i64 %.sroa.012.4.insert.insert.i, i64 %.sroa.6.12.insert.insert.i, ptr noundef nonnull %3, ptr noundef nonnull %4, ptr noundef nonnull %5) #11
  %40 = load i8, ptr %4, align 1, !tbaa !6, !range !8, !noundef !9
  %41 = trunc nuw i8 %40 to i1
  %42 = load i8, ptr %5, align 1, !tbaa !6, !range !8, !noundef !9
  %43 = trunc nuw i8 %42 to i1
  %.sroa.0.0.copyload.i = load i64, ptr %3, align 8
  %.sroa.2.0..sroa_idx.i = getelementptr inbounds nuw i8, ptr %3, i64 8
  %.sroa.2.0.copyload.i = load i64, ptr %.sroa.2.0..sroa_idx.i, align 8
  %44 = call i64 @_ZN7xgboost6detail17PowerBaseComputer22ShortestRepresentationEbbhbNS0_15MantissaIntevalE(i1 noundef zeroext %41, i1 noundef zeroext %43, i8 noundef zeroext %39, i1 noundef zeroext %30, i64 %.sroa.0.0.copyload.i, i64 %.sroa.2.0.copyload.i) #11
  call void @llvm.lifetime.end.p0(i64 1, ptr nonnull %5) #11
  call void @llvm.lifetime.end.p0(i64 1, ptr nonnull %4) #11
  call void @llvm.lifetime.end.p0(i64 16, ptr nonnull %3) #11
  %45 = trunc nuw i32 %.lobit.i to i1
  %46 = call noundef i32 @_ZN7xgboost6detail10RyuPrinter16PrintBase10FloatENS0_19UnsignedFloatBase10EbPc(i64 %44, i1 noundef zeroext %45, ptr noundef %1) #11
  br label %_ZN7xgboost6detail10RyuPrinter17PrintSpecialFloatEbNS0_18UnsignedFloatBase2EPc.exit

_ZN7xgboost6detail10RyuPrinter17PrintSpecialFloatEbNS0_18UnsignedFloatBase2EPc.exit: ; preds = %23, %21, %15, %25
  %.0 = phi i32 [ %46, %25 ], [ 3, %15 ], [ %22, %21 ], [ %24, %23 ]
  ret i32 %.0
}